
rf24_window.elf:     Dateiformat elf32-avr

Sektionen:
Idx Name          Größe     VMA       LMA       Datei-Off Ausr.
  0 .text         00000d3a  00000000  00000000  00000100  2**8
                  CONTENTS, ALLOC, LOAD, READONLY, CODE
  1 .bootloader   0000009a  00000d3a  00000d3a  00000e3a  2**0
                  CONTENTS, ALLOC, LOAD, READONLY, CODE
  2 .data         00000032  00800060  00000dd4  00000ed4  2**0
                  CONTENTS, ALLOC, LOAD, DATA
  3 .bss          00000042  00800092  00800092  00000f06  2**0
                  ALLOC
  4 .comment      00000011  00000000  00000000  00000f06  2**0
                  CONTENTS, READONLY
  5 .note.gnu.avr.deviceinfo 0000003c  00000000  00000000  00000f18  2**2
                  CONTENTS, READONLY

Disassembly of section .text:

00000000 <__vectors>:
   0:	3f c0       	rjmp	.+126    	; 0x80 <__ctors_end>
   2:	59 c0       	rjmp	.+178    	; 0xb6 <__bad_interrupt>
   4:	ba c2       	rjmp	.+1396   	; 0x57a <__vector_2>
   6:	57 c0       	rjmp	.+174    	; 0xb6 <__bad_interrupt>
   8:	cf c2       	rjmp	.+1438   	; 0x5a8 <__vector_4>
   a:	55 c0       	rjmp	.+170    	; 0xb6 <__bad_interrupt>
   c:	54 c0       	rjmp	.+168    	; 0xb6 <__bad_interrupt>
   e:	53 c0       	rjmp	.+166    	; 0xb6 <__bad_interrupt>
  10:	52 c0       	rjmp	.+164    	; 0xb6 <__bad_interrupt>
  12:	ad c5       	rjmp	.+2906   	; 0xb6e <__vector_9>
  14:	50 c0       	rjmp	.+160    	; 0xb6 <__bad_interrupt>
  16:	4f c0       	rjmp	.+158    	; 0xb6 <__bad_interrupt>
  18:	4e c0       	rjmp	.+156    	; 0xb6 <__bad_interrupt>
  1a:	4d c0       	rjmp	.+154    	; 0xb6 <__bad_interrupt>
  1c:	4c c0       	rjmp	.+152    	; 0xb6 <__bad_interrupt>
  1e:	4b c0       	rjmp	.+150    	; 0xb6 <__bad_interrupt>
  20:	4a c0       	rjmp	.+148    	; 0xb6 <__bad_interrupt>

00000022 <__trampolines_end>:
	...

00000040 <config>:
  40:	00 00 6e 5a 32 53 62 4b 71 44 4e 4d 37 62 65 00     ..nZ2SbKqDNM7be.
  50:	ff 00 00 00 00 00 00 00 00 00 00 00 00 00 00 00     ................
	...

00000080 <__ctors_end>:
  80:	11 24       	eor	r1, r1
  82:	1f be       	out	0x3f, r1	; 63
  84:	cf e5       	ldi	r28, 0x5F	; 95
  86:	d2 e0       	ldi	r29, 0x02	; 2
  88:	de bf       	out	0x3e, r29	; 62
  8a:	cd bf       	out	0x3d, r28	; 61

0000008c <__do_copy_data>:
  8c:	10 e0       	ldi	r17, 0x00	; 0
  8e:	a0 e6       	ldi	r26, 0x60	; 96
  90:	b0 e0       	ldi	r27, 0x00	; 0
  92:	e4 ed       	ldi	r30, 0xD4	; 212
  94:	fd e0       	ldi	r31, 0x0D	; 13
  96:	02 c0       	rjmp	.+4      	; 0x9c <__do_copy_data+0x10>
  98:	05 90       	lpm	r0, Z+
  9a:	0d 92       	st	X+, r0
  9c:	a2 39       	cpi	r26, 0x92	; 146
  9e:	b1 07       	cpc	r27, r17
  a0:	d9 f7       	brne	.-10     	; 0x98 <__do_copy_data+0xc>

000000a2 <__do_clear_bss>:
  a2:	20 e0       	ldi	r18, 0x00	; 0
  a4:	a2 e9       	ldi	r26, 0x92	; 146
  a6:	b0 e0       	ldi	r27, 0x00	; 0
  a8:	01 c0       	rjmp	.+2      	; 0xac <.do_clear_bss_start>

000000aa <.do_clear_bss_loop>:
  aa:	1d 92       	st	X+, r1

000000ac <.do_clear_bss_start>:
  ac:	a4 3d       	cpi	r26, 0xD4	; 212
  ae:	b2 07       	cpc	r27, r18
  b0:	e1 f7       	brne	.-8      	; 0xaa <.do_clear_bss_loop>
  b2:	eb d2       	rcall	.+1494   	; 0x68a <main>
  b4:	40 c6       	rjmp	.+3200   	; 0xd36 <_exit>

000000b6 <__bad_interrupt>:
  b6:	a4 cf       	rjmp	.-184    	; 0x0 <__vectors>

000000b8 <aes256_enc>:
  b8:	4e e0       	ldi	r20, 0x0E	; 14
  ba:	03 c0       	rjmp	.+6      	; 0xc2 <aes_encrypt_core>

000000bc <aes192_enc>:
  bc:	4c e0       	ldi	r20, 0x0C	; 12
  be:	01 c0       	rjmp	.+2      	; 0xc2 <aes_encrypt_core>

000000c0 <aes128_enc>:
  c0:	4a e0       	ldi	r20, 0x0A	; 10

000000c2 <aes_encrypt_core>:
  c2:	2f 92       	push	r2
  c4:	3f 92       	push	r3
  c6:	4f 92       	push	r4
  c8:	5f 92       	push	r5
  ca:	6f 92       	push	r6
  cc:	7f 92       	push	r7
  ce:	8f 92       	push	r8
  d0:	9f 92       	push	r9
  d2:	af 92       	push	r10
  d4:	bf 92       	push	r11
  d6:	cf 92       	push	r12
  d8:	df 92       	push	r13
  da:	ef 92       	push	r14
  dc:	ff 92       	push	r15
  de:	0f 93       	push	r16
  e0:	1f 93       	push	r17
  e2:	cf 93       	push	r28
  e4:	df 93       	push	r29
  e6:	8f 93       	push	r24
  e8:	9f 93       	push	r25
  ea:	db 01       	movw	r26, r22
  ec:	fc 01       	movw	r30, r24
  ee:	84 2f       	mov	r24, r20
  f0:	e8 94       	clt
  f2:	81 90       	ld	r8, Z+
  f4:	91 90       	ld	r9, Z+
  f6:	a1 90       	ld	r10, Z+
  f8:	b1 90       	ld	r11, Z+
  fa:	c1 90       	ld	r12, Z+
  fc:	d1 90       	ld	r13, Z+
  fe:	e1 90       	ld	r14, Z+
 100:	f1 90       	ld	r15, Z+
 102:	01 91       	ld	r16, Z+
 104:	11 91       	ld	r17, Z+
 106:	21 91       	ld	r18, Z+
 108:	31 91       	ld	r19, Z+
 10a:	41 91       	ld	r20, Z+
 10c:	51 91       	ld	r21, Z+
 10e:	61 91       	ld	r22, Z+
 110:	71 91       	ld	r23, Z+
 112:	9b e1       	ldi	r25, 0x1B	; 27
 114:	f4 e0       	ldi	r31, 0x04	; 4
 116:	0d 90       	ld	r0, X+
 118:	80 24       	eor	r8, r0
 11a:	0d 90       	ld	r0, X+
 11c:	90 24       	eor	r9, r0
 11e:	0d 90       	ld	r0, X+
 120:	a0 24       	eor	r10, r0
 122:	0d 90       	ld	r0, X+
 124:	b0 24       	eor	r11, r0
 126:	0d 90       	ld	r0, X+
 128:	c0 24       	eor	r12, r0
 12a:	0d 90       	ld	r0, X+
 12c:	d0 24       	eor	r13, r0
 12e:	0d 90       	ld	r0, X+
 130:	e0 24       	eor	r14, r0
 132:	0d 90       	ld	r0, X+
 134:	f0 24       	eor	r15, r0
 136:	0d 90       	ld	r0, X+
 138:	00 25       	eor	r16, r0
 13a:	0d 90       	ld	r0, X+
 13c:	10 25       	eor	r17, r0
 13e:	0d 90       	ld	r0, X+
 140:	20 25       	eor	r18, r0
 142:	0d 90       	ld	r0, X+
 144:	30 25       	eor	r19, r0
 146:	0d 90       	ld	r0, X+
 148:	40 25       	eor	r20, r0
 14a:	0d 90       	ld	r0, X+
 14c:	50 25       	eor	r21, r0
 14e:	0d 90       	ld	r0, X+
 150:	60 25       	eor	r22, r0
 152:	0d 90       	ld	r0, X+
 154:	70 25       	eor	r23, r0
 156:	2e f5       	brtc	.+74     	; 0x1a2 <exit+0x4a>

00000158 <exit>:
 158:	ff 91       	pop	r31
 15a:	ef 91       	pop	r30
 15c:	81 92       	st	Z+, r8
 15e:	91 92       	st	Z+, r9
 160:	a1 92       	st	Z+, r10
 162:	b1 92       	st	Z+, r11
 164:	c1 92       	st	Z+, r12
 166:	d1 92       	st	Z+, r13
 168:	e1 92       	st	Z+, r14
 16a:	f1 92       	st	Z+, r15
 16c:	01 93       	st	Z+, r16
 16e:	11 93       	st	Z+, r17
 170:	21 93       	st	Z+, r18
 172:	31 93       	st	Z+, r19
 174:	41 93       	st	Z+, r20
 176:	51 93       	st	Z+, r21
 178:	61 93       	st	Z+, r22
 17a:	71 93       	st	Z+, r23
 17c:	df 91       	pop	r29
 17e:	cf 91       	pop	r28
 180:	1f 91       	pop	r17
 182:	0f 91       	pop	r16
 184:	ff 90       	pop	r15
 186:	ef 90       	pop	r14
 188:	df 90       	pop	r13
 18a:	cf 90       	pop	r12
 18c:	bf 90       	pop	r11
 18e:	af 90       	pop	r10
 190:	9f 90       	pop	r9
 192:	8f 90       	pop	r8
 194:	7f 90       	pop	r7
 196:	6f 90       	pop	r6
 198:	5f 90       	pop	r5
 19a:	4f 90       	pop	r4
 19c:	3f 90       	pop	r3
 19e:	2f 90       	pop	r2
 1a0:	08 95       	ret
 1a2:	8a 95       	dec	r24
 1a4:	09 f4       	brne	.+2      	; 0x1a8 <exit+0x50>
 1a6:	68 94       	set
 1a8:	e8 2d       	mov	r30, r8
 1aa:	84 90       	lpm	r8, Z
 1ac:	ec 2d       	mov	r30, r12
 1ae:	c4 90       	lpm	r12, Z
 1b0:	e0 2f       	mov	r30, r16
 1b2:	04 91       	lpm	r16, Z
 1b4:	e4 2f       	mov	r30, r20
 1b6:	44 91       	lpm	r20, Z
 1b8:	e9 2d       	mov	r30, r9
 1ba:	24 90       	lpm	r2, Z
 1bc:	ed 2d       	mov	r30, r13
 1be:	94 90       	lpm	r9, Z
 1c0:	e1 2f       	mov	r30, r17
 1c2:	d4 90       	lpm	r13, Z
 1c4:	e5 2f       	mov	r30, r21
 1c6:	14 91       	lpm	r17, Z
 1c8:	52 2d       	mov	r21, r2
 1ca:	ea 2d       	mov	r30, r10
 1cc:	24 90       	lpm	r2, Z
 1ce:	ee 2d       	mov	r30, r14
 1d0:	34 90       	lpm	r3, Z
 1d2:	e2 2f       	mov	r30, r18
 1d4:	a4 90       	lpm	r10, Z
 1d6:	e6 2f       	mov	r30, r22
 1d8:	e4 90       	lpm	r14, Z
 1da:	22 2d       	mov	r18, r2
 1dc:	63 2d       	mov	r22, r3
 1de:	eb 2d       	mov	r30, r11
 1e0:	24 90       	lpm	r2, Z
 1e2:	e7 2f       	mov	r30, r23
 1e4:	b4 90       	lpm	r11, Z
 1e6:	e3 2f       	mov	r30, r19
 1e8:	74 91       	lpm	r23, Z
 1ea:	ef 2d       	mov	r30, r15
 1ec:	34 91       	lpm	r19, Z
 1ee:	f2 2c       	mov	r15, r2
 1f0:	0e f4       	brtc	.+2      	; 0x1f4 <exit+0x9c>
 1f2:	91 cf       	rjmp	.-222    	; 0x116 <aes_encrypt_core+0x54>
 1f4:	0a 2c       	mov	r0, r10
 1f6:	0b 24       	eor	r0, r11
 1f8:	40 2c       	mov	r4, r0
 1fa:	28 2c       	mov	r2, r8
 1fc:	89 24       	eor	r8, r9
 1fe:	08 24       	eor	r0, r8
 200:	88 0c       	add	r8, r8
 202:	08 f4       	brcc	.+2      	; 0x206 <exit+0xae>
 204:	89 26       	eor	r8, r25
 206:	80 24       	eor	r8, r0
 208:	82 24       	eor	r8, r2
 20a:	39 2c       	mov	r3, r9
 20c:	3a 24       	eor	r3, r10
 20e:	33 0c       	add	r3, r3
 210:	08 f4       	brcc	.+2      	; 0x214 <exit+0xbc>
 212:	39 26       	eor	r3, r25
 214:	30 24       	eor	r3, r0
 216:	93 24       	eor	r9, r3
 218:	44 0c       	add	r4, r4
 21a:	08 f4       	brcc	.+2      	; 0x21e <exit+0xc6>
 21c:	49 26       	eor	r4, r25
 21e:	40 24       	eor	r4, r0
 220:	a4 24       	eor	r10, r4
 222:	2b 24       	eor	r2, r11
 224:	22 0c       	add	r2, r2
 226:	08 f4       	brcc	.+2      	; 0x22a <exit+0xd2>
 228:	29 26       	eor	r2, r25
 22a:	20 24       	eor	r2, r0
 22c:	b2 24       	eor	r11, r2
 22e:	0e 2c       	mov	r0, r14
 230:	0f 24       	eor	r0, r15
 232:	40 2c       	mov	r4, r0
 234:	2c 2c       	mov	r2, r12
 236:	cd 24       	eor	r12, r13
 238:	0c 24       	eor	r0, r12
 23a:	cc 0c       	add	r12, r12
 23c:	08 f4       	brcc	.+2      	; 0x240 <exit+0xe8>
 23e:	c9 26       	eor	r12, r25
 240:	c0 24       	eor	r12, r0
 242:	c2 24       	eor	r12, r2
 244:	3d 2c       	mov	r3, r13
 246:	3e 24       	eor	r3, r14
 248:	33 0c       	add	r3, r3
 24a:	08 f4       	brcc	.+2      	; 0x24e <exit+0xf6>
 24c:	39 26       	eor	r3, r25
 24e:	30 24       	eor	r3, r0
 250:	d3 24       	eor	r13, r3
 252:	44 0c       	add	r4, r4
 254:	08 f4       	brcc	.+2      	; 0x258 <exit+0x100>
 256:	49 26       	eor	r4, r25
 258:	40 24       	eor	r4, r0
 25a:	e4 24       	eor	r14, r4
 25c:	2f 24       	eor	r2, r15
 25e:	22 0c       	add	r2, r2
 260:	08 f4       	brcc	.+2      	; 0x264 <__stack+0x5>
 262:	29 26       	eor	r2, r25
 264:	20 24       	eor	r2, r0
 266:	f2 24       	eor	r15, r2
 268:	02 2e       	mov	r0, r18
 26a:	03 26       	eor	r0, r19
 26c:	40 2c       	mov	r4, r0
 26e:	20 2e       	mov	r2, r16
 270:	01 27       	eor	r16, r17
 272:	00 26       	eor	r0, r16
 274:	00 0f       	add	r16, r16
 276:	08 f4       	brcc	.+2      	; 0x27a <__stack+0x1b>
 278:	09 27       	eor	r16, r25
 27a:	00 25       	eor	r16, r0
 27c:	02 25       	eor	r16, r2
 27e:	31 2e       	mov	r3, r17
 280:	32 26       	eor	r3, r18
 282:	33 0c       	add	r3, r3
 284:	08 f4       	brcc	.+2      	; 0x288 <__stack+0x29>
 286:	39 26       	eor	r3, r25
 288:	30 24       	eor	r3, r0
 28a:	13 25       	eor	r17, r3
 28c:	44 0c       	add	r4, r4
 28e:	08 f4       	brcc	.+2      	; 0x292 <__stack+0x33>
 290:	49 26       	eor	r4, r25
 292:	40 24       	eor	r4, r0
 294:	24 25       	eor	r18, r4
 296:	23 26       	eor	r2, r19
 298:	22 0c       	add	r2, r2
 29a:	08 f4       	brcc	.+2      	; 0x29e <__stack+0x3f>
 29c:	29 26       	eor	r2, r25
 29e:	20 24       	eor	r2, r0
 2a0:	32 25       	eor	r19, r2
 2a2:	06 2e       	mov	r0, r22
 2a4:	07 26       	eor	r0, r23
 2a6:	40 2c       	mov	r4, r0
 2a8:	24 2e       	mov	r2, r20
 2aa:	45 27       	eor	r20, r21
 2ac:	04 26       	eor	r0, r20
 2ae:	44 0f       	add	r20, r20
 2b0:	08 f4       	brcc	.+2      	; 0x2b4 <__stack+0x55>
 2b2:	49 27       	eor	r20, r25
 2b4:	40 25       	eor	r20, r0
 2b6:	42 25       	eor	r20, r2
 2b8:	35 2e       	mov	r3, r21
 2ba:	36 26       	eor	r3, r22
 2bc:	33 0c       	add	r3, r3
 2be:	08 f4       	brcc	.+2      	; 0x2c2 <__stack+0x63>
 2c0:	39 26       	eor	r3, r25
 2c2:	30 24       	eor	r3, r0
 2c4:	53 25       	eor	r21, r3
 2c6:	44 0c       	add	r4, r4
 2c8:	08 f4       	brcc	.+2      	; 0x2cc <__stack+0x6d>
 2ca:	49 26       	eor	r4, r25
 2cc:	40 24       	eor	r4, r0
 2ce:	64 25       	eor	r22, r4
 2d0:	27 26       	eor	r2, r23
 2d2:	22 0c       	add	r2, r2
 2d4:	08 f4       	brcc	.+2      	; 0x2d8 <__stack+0x79>
 2d6:	29 26       	eor	r2, r25
 2d8:	20 24       	eor	r2, r0
 2da:	72 25       	eor	r23, r2
 2dc:	1c cf       	rjmp	.-456    	; 0x116 <aes_encrypt_core+0x54>

000002de <aes256_init>:
 2de:	ab 01       	movw	r20, r22
 2e0:	71 e0       	ldi	r23, 0x01	; 1
 2e2:	60 e0       	ldi	r22, 0x00	; 0
 2e4:	07 c0       	rjmp	.+14     	; 0x2f4 <aes_init>

000002e6 <aes192_init>:
 2e6:	ab 01       	movw	r20, r22
 2e8:	70 e0       	ldi	r23, 0x00	; 0
 2ea:	60 ec       	ldi	r22, 0xC0	; 192
 2ec:	03 c0       	rjmp	.+6      	; 0x2f4 <aes_init>

000002ee <aes128_init>:
 2ee:	ab 01       	movw	r20, r22
 2f0:	77 27       	eor	r23, r23
 2f2:	60 e8       	ldi	r22, 0x80	; 128

000002f4 <aes_init>:
 2f4:	ef 92       	push	r14
 2f6:	ff 92       	push	r15
 2f8:	0f 93       	push	r16
 2fa:	1f 93       	push	r17
 2fc:	cf 93       	push	r28
 2fe:	df 93       	push	r29
 300:	fa 01       	movw	r30, r20
 302:	ea 01       	movw	r28, r20
 304:	dc 01       	movw	r26, r24
 306:	76 95       	lsr	r23
 308:	67 95       	ror	r22
 30a:	66 95       	lsr	r22
 30c:	66 95       	lsr	r22
 30e:	26 2f       	mov	r18, r22
 310:	0d 90       	ld	r0, X+
 312:	01 92       	st	Z+, r0
 314:	2a 95       	dec	r18
 316:	e1 f7       	brne	.-8      	; 0x310 <aes_init+0x1c>
 318:	66 95       	lsr	r22
 31a:	66 95       	lsr	r22
 31c:	63 fb       	bst	r22, 3
 31e:	36 2f       	mov	r19, r22
 320:	76 2f       	mov	r23, r22
 322:	79 5f       	subi	r23, 0xF9	; 249
 324:	77 0f       	add	r23, r23
 326:	77 0f       	add	r23, r23
 328:	df 01       	movw	r26, r30
 32a:	14 97       	sbiw	r26, 0x04	; 4
 32c:	26 2f       	mov	r18, r22
 32e:	e0 e0       	ldi	r30, 0x00	; 0
 330:	f4 e0       	ldi	r31, 0x04	; 4
 332:	7f 01       	movw	r14, r30
 334:	11 e0       	ldi	r17, 0x01	; 1
 336:	4d 91       	ld	r20, X+
 338:	5d 91       	ld	r21, X+
 33a:	8d 91       	ld	r24, X+
 33c:	9d 91       	ld	r25, X+
 33e:	32 17       	cp	r19, r18
 340:	b1 f0       	breq	.+44     	; 0x36e <aes_init+0x7a>
 342:	5e f5       	brtc	.+86     	; 0x39a <aes_init+0xa6>
 344:	02 2f       	mov	r16, r18
 346:	07 70       	andi	r16, 0x07	; 7
 348:	04 30       	cpi	r16, 0x04	; 4
 34a:	39 f5       	brne	.+78     	; 0x39a <aes_init+0xa6>
 34c:	f7 01       	movw	r30, r14
 34e:	e4 0f       	add	r30, r20
 350:	f1 1d       	adc	r31, r1
 352:	44 91       	lpm	r20, Z
 354:	f7 01       	movw	r30, r14
 356:	e5 0f       	add	r30, r21
 358:	f1 1d       	adc	r31, r1
 35a:	54 91       	lpm	r21, Z
 35c:	f7 01       	movw	r30, r14
 35e:	e8 0f       	add	r30, r24
 360:	f1 1d       	adc	r31, r1
 362:	84 91       	lpm	r24, Z
 364:	f7 01       	movw	r30, r14
 366:	e9 0f       	add	r30, r25
 368:	f1 1d       	adc	r31, r1
 36a:	94 91       	lpm	r25, Z
 36c:	16 c0       	rjmp	.+44     	; 0x39a <aes_init+0xa6>
 36e:	36 0f       	add	r19, r22
 370:	f7 01       	movw	r30, r14
 372:	e4 0f       	add	r30, r20
 374:	f1 1d       	adc	r31, r1
 376:	04 91       	lpm	r16, Z
 378:	f7 01       	movw	r30, r14
 37a:	e5 0f       	add	r30, r21
 37c:	f1 1d       	adc	r31, r1
 37e:	44 91       	lpm	r20, Z
 380:	f7 01       	movw	r30, r14
 382:	e8 0f       	add	r30, r24
 384:	f1 1d       	adc	r31, r1
 386:	54 91       	lpm	r21, Z
 388:	f7 01       	movw	r30, r14
 38a:	e9 0f       	add	r30, r25
 38c:	f1 1d       	adc	r31, r1
 38e:	84 91       	lpm	r24, Z
 390:	90 2f       	mov	r25, r16
 392:	41 27       	eor	r20, r17
 394:	11 0f       	add	r17, r17
 396:	08 f4       	brcc	.+2      	; 0x39a <aes_init+0xa6>
 398:	1b e1       	ldi	r17, 0x1B	; 27
 39a:	fd 01       	movw	r30, r26
 39c:	09 90       	ld	r0, Y+
 39e:	04 26       	eor	r0, r20
 3a0:	01 92       	st	Z+, r0
 3a2:	09 90       	ld	r0, Y+
 3a4:	05 26       	eor	r0, r21
 3a6:	01 92       	st	Z+, r0
 3a8:	09 90       	ld	r0, Y+
 3aa:	08 26       	eor	r0, r24
 3ac:	01 92       	st	Z+, r0
 3ae:	09 90       	ld	r0, Y+
 3b0:	09 26       	eor	r0, r25
 3b2:	01 92       	st	Z+, r0
 3b4:	23 95       	inc	r18
 3b6:	27 17       	cp	r18, r23
 3b8:	09 f0       	breq	.+2      	; 0x3bc <aes_init+0xc8>
 3ba:	bd cf       	rjmp	.-134    	; 0x336 <aes_init+0x42>
 3bc:	e8 94       	clt
 3be:	df 91       	pop	r29
 3c0:	cf 91       	pop	r28
 3c2:	1f 91       	pop	r17
 3c4:	0f 91       	pop	r16
 3c6:	ff 90       	pop	r15
 3c8:	ef 90       	pop	r14
 3ca:	08 95       	ret
	...

00000400 <aes_sbox>:
 400:	63 7c       	andi	r22, 0xC3	; 195
 402:	77 7b       	andi	r23, 0xB7	; 183
 404:	f2 6b       	ori	r31, 0xB2	; 178
 406:	6f c5       	rjmp	.+2782   	; 0xee6 <__data_load_end+0xe0>
 408:	30 01       	movw	r6, r0
 40a:	67 2b       	or	r22, r23
 40c:	fe d7       	rcall	.+4092   	; 0x140a <__data_load_end+0x604>
 40e:	ab 76       	andi	r26, 0x6B	; 107
 410:	ca 82       	std	Y+2, r12	; 0x02
 412:	c9 7d       	andi	r28, 0xD9	; 217
 414:	fa 59       	subi	r31, 0x9A	; 154
 416:	47 f0       	brie	.+16     	; 0x428 <aes_sbox+0x28>
 418:	ad d4       	rcall	.+2394   	; 0xd74 <_etext+0x3a>
 41a:	a2 af       	std	Z+58, r26	; 0x3a
 41c:	9c a4       	ldd	r9, Y+44	; 0x2c
 41e:	72 c0       	rjmp	.+228    	; 0x504 <aes128_enc_single+0x4>
 420:	b7 fd       	sbrc	r27, 7
 422:	93 26       	eor	r9, r19
 424:	36 3f       	cpi	r19, 0xF6	; 246
 426:	f7 cc       	rjmp	.-1554   	; 0xfffffe16 <__eeprom_end+0xff7efe16>
 428:	34 a5       	ldd	r19, Z+44	; 0x2c
 42a:	e5 f1       	brhs	.+120    	; 0x4a4 <aes_sbox+0xa4>
 42c:	71 d8       	rcall	.-3870   	; 0xfffff510 <__eeprom_end+0xff7ef510>
 42e:	31 15       	cp	r19, r1
 430:	04 c7       	rjmp	.+3592   	; 0x123a <__data_load_end+0x434>
 432:	23 c3       	rjmp	.+1606   	; 0xa7a <mirf_transmit_data+0x6c>
 434:	18 96       	adiw	r26, 0x08	; 8
 436:	05 9a       	sbi	0x00, 5	; 0
 438:	07 12       	cpse	r0, r23
 43a:	80 e2       	ldi	r24, 0x20	; 32
 43c:	eb 27       	eor	r30, r27
 43e:	b2 75       	andi	r27, 0x52	; 82
 440:	09 83       	std	Y+1, r16	; 0x01
 442:	2c 1a       	sub	r2, r28
 444:	1b 6e       	ori	r17, 0xEB	; 235
 446:	5a a0       	ldd	r5, Y+34	; 0x22
 448:	52 3b       	cpi	r21, 0xB2	; 178
 44a:	d6 b3       	in	r29, 0x16	; 22
 44c:	29 e3       	ldi	r18, 0x39	; 57
 44e:	2f 84       	ldd	r2, Y+15	; 0x0f
 450:	53 d1       	rcall	.+678    	; 0x6f8 <main+0x6e>
 452:	00 ed       	ldi	r16, 0xD0	; 208
 454:	20 fc       	sbrc	r2, 0
 456:	b1 5b       	subi	r27, 0xB1	; 177
 458:	6a cb       	rjmp	.-2348   	; 0xfffffb2e <__eeprom_end+0xff7efb2e>
 45a:	be 39       	cpi	r27, 0x9E	; 158
 45c:	4a 4c       	sbci	r20, 0xCA	; 202
 45e:	58 cf       	rjmp	.-336    	; 0x310 <aes_init+0x1c>
 460:	d0 ef       	ldi	r29, 0xF0	; 240
 462:	aa fb       	.word	0xfbaa	; ????
 464:	43 4d       	sbci	r20, 0xD3	; 211
 466:	33 85       	ldd	r19, Z+11	; 0x0b
 468:	45 f9       	bld	r20, 5
 46a:	02 7f       	andi	r16, 0xF2	; 242
 46c:	50 3c       	cpi	r21, 0xC0	; 192
 46e:	9f a8       	ldd	r9, Y+55	; 0x37
 470:	51 a3       	std	Z+33, r21	; 0x21
 472:	40 8f       	std	Z+24, r20	; 0x18
 474:	92 9d       	mul	r25, r2
 476:	38 f5       	brcc	.+78     	; 0x4c6 <aes_sbox+0xc6>
 478:	bc b6       	in	r11, 0x3c	; 60
 47a:	da 21       	and	r29, r10
 47c:	10 ff       	sbrs	r17, 0
 47e:	f3 d2       	rcall	.+1510   	; 0xa66 <mirf_transmit_data+0x58>
 480:	cd 0c       	add	r12, r13
 482:	13 ec       	ldi	r17, 0xC3	; 195
 484:	5f 97       	sbiw	r26, 0x1f	; 31
 486:	44 17       	cp	r20, r20
 488:	c4 a7       	std	Z+44, r28	; 0x2c
 48a:	7e 3d       	cpi	r23, 0xDE	; 222
 48c:	64 5d       	subi	r22, 0xD4	; 212
 48e:	19 73       	andi	r17, 0x39	; 57
 490:	60 81       	ld	r22, Z
 492:	4f dc       	rcall	.-1890   	; 0xfffffd32 <__eeprom_end+0xff7efd32>
 494:	22 2a       	or	r2, r18
 496:	90 88       	ldd	r9, Z+16	; 0x10
 498:	46 ee       	ldi	r20, 0xE6	; 230
 49a:	b8 14       	cp	r11, r8
 49c:	de 5e       	subi	r29, 0xEE	; 238
 49e:	0b db       	rcall	.-2538   	; 0xfffffab6 <__eeprom_end+0xff7efab6>
 4a0:	e0 32       	cpi	r30, 0x20	; 32
 4a2:	3a 0a       	sbc	r3, r26
 4a4:	49 06       	cpc	r4, r25
 4a6:	24 5c       	subi	r18, 0xC4	; 196
 4a8:	c2 d3       	rcall	.+1924   	; 0xc2e <__vector_9+0xc0>
 4aa:	ac 62       	ori	r26, 0x2C	; 44
 4ac:	91 95       	neg	r25
 4ae:	e4 79       	andi	r30, 0x94	; 148
 4b0:	e7 c8       	rjmp	.-3634   	; 0xfffff680 <__eeprom_end+0xff7ef680>
 4b2:	37 6d       	ori	r19, 0xD7	; 215
 4b4:	8d d5       	rcall	.+2842   	; 0xfd0 <__data_load_end+0x1ca>
 4b6:	4e a9       	ldd	r20, Y+54	; 0x36
 4b8:	6c 56       	subi	r22, 0x6C	; 108
 4ba:	f4 ea       	ldi	r31, 0xA4	; 164
 4bc:	65 7a       	andi	r22, 0xA5	; 165
 4be:	ae 08       	sbc	r10, r14
 4c0:	ba 78       	andi	r27, 0x8A	; 138
 4c2:	25 2e       	mov	r2, r21
 4c4:	1c a6       	std	Y+44, r1	; 0x2c
 4c6:	b4 c6       	rjmp	.+3432   	; 0x1230 <__data_load_end+0x42a>
 4c8:	e8 dd       	rcall	.-1072   	; 0x9a <__do_copy_data+0xe>
 4ca:	74 1f       	adc	r23, r20
 4cc:	4b bd       	out	0x2b, r20	; 43
 4ce:	8b 8a       	std	Y+19, r8	; 0x13
 4d0:	70 3e       	cpi	r23, 0xE0	; 224
 4d2:	b5 66       	ori	r27, 0x65	; 101
 4d4:	48 03       	fmul	r20, r16
 4d6:	f6 0e       	add	r15, r22
 4d8:	61 35       	cpi	r22, 0x51	; 81
 4da:	57 b9       	out	0x07, r21	; 7
 4dc:	86 c1       	rjmp	.+780    	; 0x7ea <main+0x160>
 4de:	1d 9e       	mul	r1, r29
 4e0:	e1 f8       	bld	r14, 1
 4e2:	98 11       	cpse	r25, r8
 4e4:	69 d9       	rcall	.-3374   	; 0xfffff7b8 <__eeprom_end+0xff7ef7b8>
 4e6:	8e 94 9b 1e 	call	0x203d36	; 0x203d36 <__data_load_end+0x202f30>
 4ea:	87 e9       	ldi	r24, 0x97	; 151
 4ec:	ce 55       	subi	r28, 0x5E	; 94
 4ee:	28 df       	rcall	.-432    	; 0x340 <aes_init+0x4c>
 4f0:	8c a1       	ldd	r24, Y+36	; 0x24
 4f2:	89 0d       	add	r24, r9
 4f4:	bf e6       	ldi	r27, 0x6F	; 111
 4f6:	42 68       	ori	r20, 0x82	; 130
 4f8:	41 99       	sbic	0x08, 1	; 8
 4fa:	2d 0f       	add	r18, r29
 4fc:	b0 54       	subi	r27, 0x40	; 64
 4fe:	bb 16       	cp	r11, r27

00000500 <aes128_enc_single>:
 500:	0f 93       	push	r16
 502:	1f 93       	push	r17
 504:	cf 93       	push	r28
 506:	df 93       	push	r29
 508:	cd b7       	in	r28, 0x3d	; 61
 50a:	de b7       	in	r29, 0x3e	; 62
 50c:	c0 5b       	subi	r28, 0xB0	; 176
 50e:	d1 09       	sbc	r29, r1
 510:	0f b6       	in	r0, 0x3f	; 63
 512:	f8 94       	cli
 514:	de bf       	out	0x3e, r29	; 62
 516:	0f be       	out	0x3f, r0	; 63
 518:	cd bf       	out	0x3d, r28	; 61
 51a:	8b 01       	movw	r16, r22
 51c:	be 01       	movw	r22, r28
 51e:	6f 5f       	subi	r22, 0xFF	; 255
 520:	7f 4f       	sbci	r23, 0xFF	; 255
 522:	e5 de       	rcall	.-566    	; 0x2ee <aes128_init>
 524:	be 01       	movw	r22, r28
 526:	6f 5f       	subi	r22, 0xFF	; 255
 528:	7f 4f       	sbci	r23, 0xFF	; 255
 52a:	c8 01       	movw	r24, r16
 52c:	c9 dd       	rcall	.-1134   	; 0xc0 <aes128_enc>
 52e:	c0 55       	subi	r28, 0x50	; 80
 530:	df 4f       	sbci	r29, 0xFF	; 255
 532:	0f b6       	in	r0, 0x3f	; 63
 534:	f8 94       	cli
 536:	de bf       	out	0x3e, r29	; 62
 538:	0f be       	out	0x3f, r0	; 63
 53a:	cd bf       	out	0x3d, r28	; 61
 53c:	df 91       	pop	r29
 53e:	cf 91       	pop	r28
 540:	1f 91       	pop	r17
 542:	0f 91       	pop	r16
 544:	08 95       	ret

00000546 <_crc_xmodem_update>:
 546:	96 27       	eor	r25, r22
 548:	09 2e       	mov	r0, r25
 54a:	02 94       	swap	r0
 54c:	20 2d       	mov	r18, r0
 54e:	2f 70       	andi	r18, 0x0F	; 15
 550:	29 27       	eor	r18, r25
 552:	69 2f       	mov	r22, r25
 554:	60 25       	eor	r22, r0
 556:	66 0f       	add	r22, r22
 558:	60 7e       	andi	r22, 0xE0	; 224
 55a:	26 27       	eor	r18, r22
 55c:	60 2d       	mov	r22, r0
 55e:	69 27       	eor	r22, r25
 560:	60 7f       	andi	r22, 0xF0	; 240
 562:	66 95       	lsr	r22
 564:	09 2e       	mov	r0, r25
 566:	00 0c       	add	r0, r0
 568:	66 1f       	adc	r22, r22
 56a:	96 95       	lsr	r25
 56c:	96 95       	lsr	r25
 56e:	96 95       	lsr	r25
 570:	9f 71       	andi	r25, 0x1F	; 31
 572:	96 27       	eor	r25, r22
 574:	98 27       	eor	r25, r24
 576:	82 2f       	mov	r24, r18
 578:	08 95       	ret

0000057a <__vector_2>:
 57a:	1f 92       	push	r1
 57c:	0f 92       	push	r0
 57e:	0f b6       	in	r0, 0x3f	; 63
 580:	0f 92       	push	r0
 582:	11 24       	eor	r1, r1
 584:	8f 93       	push	r24
 586:	8b b7       	in	r24, 0x3b	; 59
 588:	80 61       	ori	r24, 0x10	; 16
 58a:	8b bf       	out	0x3b, r24	; 59
 58c:	0f b6       	in	r0, 0x3f	; 63
 58e:	f8 94       	cli
 590:	a8 95       	wdr
 592:	81 b5       	in	r24, 0x21	; 33
 594:	88 61       	ori	r24, 0x18	; 24
 596:	81 bd       	out	0x21, r24	; 33
 598:	11 bc       	out	0x21, r1	; 33
 59a:	0f be       	out	0x3f, r0	; 63
 59c:	8f 91       	pop	r24
 59e:	0f 90       	pop	r0
 5a0:	0f be       	out	0x3f, r0	; 63
 5a2:	0f 90       	pop	r0
 5a4:	1f 90       	pop	r1
 5a6:	18 95       	reti

000005a8 <__vector_4>:
 5a8:	1f 92       	push	r1
 5aa:	0f 92       	push	r0
 5ac:	0f b6       	in	r0, 0x3f	; 63
 5ae:	0f 92       	push	r0
 5b0:	11 24       	eor	r1, r1
 5b2:	8f 93       	push	r24
 5b4:	0f b6       	in	r0, 0x3f	; 63
 5b6:	f8 94       	cli
 5b8:	a8 95       	wdr
 5ba:	81 b5       	in	r24, 0x21	; 33
 5bc:	88 61       	ori	r24, 0x18	; 24
 5be:	81 bd       	out	0x21, r24	; 33
 5c0:	11 bc       	out	0x21, r1	; 33
 5c2:	0f be       	out	0x3f, r0	; 63
 5c4:	8f 91       	pop	r24
 5c6:	0f 90       	pop	r0
 5c8:	0f be       	out	0x3f, r0	; 63
 5ca:	0f 90       	pop	r0
 5cc:	1f 90       	pop	r1
 5ce:	18 95       	reti

000005d0 <resetWatchdog>:
 5d0:	14 be       	out	0x34, r1	; 52
 5d2:	88 e9       	ldi	r24, 0x98	; 152
 5d4:	81 bd       	out	0x21, r24	; 33
 5d6:	80 e6       	ldi	r24, 0x60	; 96
 5d8:	81 bd       	out	0x21, r24	; 33
 5da:	a8 95       	wdr
 5dc:	08 95       	ret

000005de <setup>:
 5de:	40 e2       	ldi	r20, 0x20	; 32
 5e0:	50 e0       	ldi	r21, 0x00	; 0
 5e2:	60 e4       	ldi	r22, 0x40	; 64
 5e4:	70 e0       	ldi	r23, 0x00	; 0
 5e6:	80 e6       	ldi	r24, 0x60	; 96
 5e8:	90 e0       	ldi	r25, 0x00	; 0
 5ea:	9c d3       	rcall	.+1848   	; 0xd24 <memcpy_P>
 5ec:	80 91 70 00 	lds	r24, 0x0070
 5f0:	80 93 9f 00 	sts	0x009F, r24
 5f4:	b7 d2       	rcall	.+1390   	; 0xb64 <spi_init>
 5f6:	9f d1       	rcall	.+830    	; 0x936 <mirf_init>
 5f8:	2f e7       	ldi	r18, 0x7F	; 127
 5fa:	88 e3       	ldi	r24, 0x38	; 56
 5fc:	91 e0       	ldi	r25, 0x01	; 1
 5fe:	21 50       	subi	r18, 0x01	; 1
 600:	80 40       	sbci	r24, 0x00	; 0
 602:	90 40       	sbci	r25, 0x00	; 0
 604:	e1 f7       	brne	.-8      	; 0x5fe <setup+0x20>
 606:	00 c0       	rjmp	.+0      	; 0x608 <setup+0x2a>
 608:	00 00       	nop
 60a:	cb d1       	rcall	.+918    	; 0x9a2 <mirf_config>
 60c:	d7 9a       	sbi	0x1a, 7	; 26
 60e:	ba 9a       	sbi	0x17, 2	; 23
 610:	d3 98       	cbi	0x1a, 3	; 26
 612:	d0 98       	cbi	0x1a, 0	; 26
 614:	d1 98       	cbi	0x1a, 1	; 26
 616:	d2 98       	cbi	0x1a, 2	; 26
 618:	d8 9a       	sbi	0x1b, 0	; 27
 61a:	d9 9a       	sbi	0x1b, 1	; 27
 61c:	da 9a       	sbi	0x1b, 2	; 27
 61e:	b8 98       	cbi	0x17, 0	; 23
 620:	b9 98       	cbi	0x17, 1	; 23
 622:	c0 9a       	sbi	0x18, 0	; 24
 624:	c1 9a       	sbi	0x18, 1	; 24
 626:	c3 9a       	sbi	0x18, 3	; 24
 628:	88 e0       	ldi	r24, 0x08	; 8
 62a:	82 bb       	out	0x12, r24	; 18
 62c:	8a b7       	in	r24, 0x3a	; 58
 62e:	80 61       	ori	r24, 0x10	; 16
 630:	8a bf       	out	0x3a, r24	; 58
 632:	8b b7       	in	r24, 0x3b	; 59
 634:	80 61       	ori	r24, 0x10	; 16
 636:	8b bf       	out	0x3b, r24	; 59
 638:	08 95       	ret

0000063a <adc_init_vcc>:
 63a:	86 e0       	ldi	r24, 0x06	; 6
 63c:	86 b9       	out	0x06, r24	; 6
 63e:	81 e2       	ldi	r24, 0x21	; 33
 640:	87 b9       	out	0x07, r24	; 7
 642:	37 9a       	sbi	0x06, 7	; 6
 644:	08 95       	ret

00000646 <goToSleep>:
 646:	85 b7       	in	r24, 0x35	; 53
 648:	87 7e       	andi	r24, 0xE7	; 231
 64a:	80 61       	ori	r24, 0x10	; 16
 64c:	85 bf       	out	0x35, r24	; 53
 64e:	16 b8       	out	0x06, r1	; 6
 650:	f8 94       	cli
 652:	8b b7       	in	r24, 0x3b	; 59
 654:	80 61       	ori	r24, 0x10	; 16
 656:	8b bf       	out	0x3b, r24	; 59
 658:	93 9a       	sbi	0x12, 3	; 18
 65a:	ba df       	rcall	.-140    	; 0x5d0 <resetWatchdog>
 65c:	85 b7       	in	r24, 0x35	; 53
 65e:	80 62       	ori	r24, 0x20	; 32
 660:	85 bf       	out	0x35, r24	; 53
 662:	78 94       	sei
 664:	88 95       	sleep
 666:	85 b7       	in	r24, 0x35	; 53
 668:	8f 7d       	andi	r24, 0xDF	; 223
 66a:	85 bf       	out	0x35, r24	; 53
 66c:	78 94       	sei
 66e:	08 95       	ret

00000670 <init_data_out>:
 670:	e6 eb       	ldi	r30, 0xB6	; 182
 672:	f0 e0       	ldi	r31, 0x00	; 0
 674:	80 91 9f 00 	lds	r24, 0x009F
 678:	80 83       	st	Z, r24
 67a:	8c ed       	ldi	r24, 0xDC	; 220
 67c:	90 e0       	ldi	r25, 0x00	; 0
 67e:	93 83       	std	Z+3, r25	; 0x03
 680:	82 83       	std	Z+2, r24	; 0x02
 682:	11 82       	std	Z+1, r1	; 0x01
 684:	15 82       	std	Z+5, r1	; 0x05
 686:	14 82       	std	Z+4, r1	; 0x04
 688:	08 95       	ret

0000068a <main>:
 68a:	cf 93       	push	r28
 68c:	df 93       	push	r29
 68e:	00 d0       	rcall	.+0      	; 0x690 <main+0x6>
 690:	cd b7       	in	r28, 0x3d	; 61
 692:	de b7       	in	r29, 0x3e	; 62
 694:	a4 df       	rcall	.-184    	; 0x5de <setup>
 696:	80 91 9f 00 	lds	r24, 0x009F
 69a:	80 93 b6 00 	sts	0x00B6, r24
 69e:	e0 e6       	ldi	r30, 0x60	; 96
 6a0:	f0 e0       	ldi	r31, 0x00	; 0
 6a2:	a7 eb       	ldi	r26, 0xB7	; 183
 6a4:	b0 e0       	ldi	r27, 0x00	; 0
 6a6:	81 91       	ld	r24, Z+
 6a8:	8d 93       	st	X+, r24
 6aa:	20 e0       	ldi	r18, 0x00	; 0
 6ac:	e0 37       	cpi	r30, 0x70	; 112
 6ae:	f2 07       	cpc	r31, r18
 6b0:	d1 f7       	brne	.-12     	; 0x6a6 <main+0x1c>
 6b2:	06 eb       	ldi	r16, 0xB6	; 182
 6b4:	10 e0       	ldi	r17, 0x00	; 0
 6b6:	80 e0       	ldi	r24, 0x00	; 0
 6b8:	90 e0       	ldi	r25, 0x00	; 0
 6ba:	f8 01       	movw	r30, r16
 6bc:	61 91       	ld	r22, Z+
 6be:	8f 01       	movw	r16, r30
 6c0:	42 df       	rcall	.-380    	; 0x546 <_crc_xmodem_update>
 6c2:	f0 e0       	ldi	r31, 0x00	; 0
 6c4:	07 3c       	cpi	r16, 0xC7	; 199
 6c6:	1f 07       	cpc	r17, r31
 6c8:	c1 f7       	brne	.-16     	; 0x6ba <main+0x30>
 6ca:	89 83       	std	Y+1, r24	; 0x01
 6cc:	9a 83       	std	Y+2, r25	; 0x02
 6ce:	d0 df       	rcall	.-96     	; 0x670 <init_data_out>
 6d0:	40 91 71 00 	lds	r20, 0x0071
 6d4:	20 91 72 00 	lds	r18, 0x0072
 6d8:	30 e0       	ldi	r19, 0x00	; 0
 6da:	32 2f       	mov	r19, r18
 6dc:	22 27       	eor	r18, r18
 6de:	24 0f       	add	r18, r20
 6e0:	31 1d       	adc	r19, r1
 6e2:	40 91 70 00 	lds	r20, 0x0070
 6e6:	89 81       	ldd	r24, Y+1	; 0x01
 6e8:	9a 81       	ldd	r25, Y+2	; 0x02
 6ea:	4f 3f       	cpi	r20, 0xFF	; 255
 6ec:	89 f4       	brne	.+34     	; 0x710 <main+0x86>
 6ee:	40 93 b6 00 	sts	0x00B6, r20
 6f2:	81 e0       	ldi	r24, 0x01	; 1
 6f4:	80 93 bb 00 	sts	0x00BB, r24
 6f8:	33 e0       	ldi	r19, 0x03	; 3
 6fa:	e3 2e       	mov	r14, r19
 6fc:	f1 2c       	mov	r15, r1
 6fe:	81 2c       	mov	r8, r1
 700:	40 e3       	ldi	r20, 0x30	; 48
 702:	94 2e       	mov	r9, r20
 704:	41 e1       	ldi	r20, 0x11	; 17
 706:	a4 2e       	mov	r10, r20
 708:	b1 2c       	mov	r11, r1
 70a:	10 e1       	ldi	r17, 0x10	; 16
 70c:	01 e0       	ldi	r16, 0x01	; 1
 70e:	1f c0       	rjmp	.+62     	; 0x74e <main+0xc4>
 710:	82 17       	cp	r24, r18
 712:	93 07       	cpc	r25, r19
 714:	89 f3       	breq	.-30     	; 0x6f8 <main+0x6e>
 716:	8f ef       	ldi	r24, 0xFF	; 255
 718:	80 93 b6 00 	sts	0x00B6, r24
 71c:	82 e0       	ldi	r24, 0x02	; 2
 71e:	ea cf       	rjmp	.-44     	; 0x6f4 <main+0x6a>
 720:	0f d1       	rcall	.+542    	; 0x940 <mirf_status>
 722:	86 fd       	sbrc	r24, 6
 724:	b0 c0       	rjmp	.+352    	; 0x886 <main+0x1fc>
 726:	e7 ee       	ldi	r30, 0xE7	; 231
 728:	f3 e0       	ldi	r31, 0x03	; 3
 72a:	31 97       	sbiw	r30, 0x01	; 1
 72c:	f1 f7       	brne	.-4      	; 0x72a <main+0xa0>
 72e:	00 c0       	rjmp	.+0      	; 0x730 <main+0xa6>
 730:	00 00       	nop
 732:	f1 e0       	ldi	r31, 0x01	; 1
 734:	cf 1a       	sub	r12, r31
 736:	d1 08       	sbc	r13, r1
 738:	99 f7       	brne	.-26     	; 0x720 <main+0x96>
 73a:	c2 98       	cbi	0x18, 2	; 24
 73c:	2f ef       	ldi	r18, 0xFF	; 255
 73e:	84 e3       	ldi	r24, 0x34	; 52
 740:	9c e0       	ldi	r25, 0x0C	; 12
 742:	21 50       	subi	r18, 0x01	; 1
 744:	80 40       	sbci	r24, 0x00	; 0
 746:	90 40       	sbci	r25, 0x00	; 0
 748:	e1 f7       	brne	.-8      	; 0x742 <main+0xb8>
 74a:	00 c0       	rjmp	.+0      	; 0x74c <main+0xc2>
 74c:	00 00       	nop
 74e:	80 91 b6 00 	lds	r24, 0x00B6
 752:	8f 3f       	cpi	r24, 0xFF	; 255
 754:	29 f5       	brne	.+74     	; 0x7a0 <main+0x116>
 756:	6a e0       	ldi	r22, 0x0A	; 10
 758:	80 e0       	ldi	r24, 0x00	; 0
 75a:	f9 d0       	rcall	.+498    	; 0x94e <mirf_config_register>
 75c:	8f e6       	ldi	r24, 0x6F	; 111
 75e:	97 e1       	ldi	r25, 0x17	; 23
 760:	01 97       	sbiw	r24, 0x01	; 1
 762:	f1 f7       	brne	.-4      	; 0x760 <main+0xd6>
 764:	00 c0       	rjmp	.+0      	; 0x766 <main+0xdc>
 766:	00 00       	nop
 768:	52 d1       	rcall	.+676    	; 0xa0e <mirf_transmit_data>
 76a:	68 e0       	ldi	r22, 0x08	; 8
 76c:	80 e0       	ldi	r24, 0x00	; 0
 76e:	ef d0       	rcall	.+478    	; 0x94e <mirf_config_register>
 770:	ef e6       	ldi	r30, 0x6F	; 111
 772:	f7 e1       	ldi	r31, 0x17	; 23
 774:	31 97       	sbiw	r30, 0x01	; 1
 776:	f1 f7       	brne	.-4      	; 0x774 <main+0xea>
 778:	00 c0       	rjmp	.+0      	; 0x77a <main+0xf0>
 77a:	00 00       	nop
 77c:	6b e0       	ldi	r22, 0x0B	; 11
 77e:	80 e0       	ldi	r24, 0x00	; 0
 780:	e6 d0       	rcall	.+460    	; 0x94e <mirf_config_register>
 782:	8f e6       	ldi	r24, 0x6F	; 111
 784:	97 e1       	ldi	r25, 0x17	; 23
 786:	01 97       	sbiw	r24, 0x01	; 1
 788:	f1 f7       	brne	.-4      	; 0x786 <main+0xfc>
 78a:	00 c0       	rjmp	.+0      	; 0x78c <main+0x102>
 78c:	00 00       	nop
 78e:	df 98       	cbi	0x1b, 7	; 27
 790:	82 ee       	ldi	r24, 0xE2	; 226
 792:	a5 d1       	rcall	.+842    	; 0xade <spi_transfer>
 794:	df 9a       	sbi	0x1b, 7	; 27
 796:	c2 9a       	sbi	0x18, 2	; 24
 798:	25 e6       	ldi	r18, 0x65	; 101
 79a:	c2 2e       	mov	r12, r18
 79c:	d1 2c       	mov	r13, r1
 79e:	c0 cf       	rjmp	.-128    	; 0x720 <main+0x96>
 7a0:	68 e0       	ldi	r22, 0x08	; 8
 7a2:	80 e0       	ldi	r24, 0x00	; 0
 7a4:	d4 d0       	rcall	.+424    	; 0x94e <mirf_config_register>
 7a6:	4f df       	rcall	.-354    	; 0x646 <goToSleep>
 7a8:	48 df       	rcall	.-368    	; 0x63a <adc_init_vcc>
 7aa:	10 92 b9 00 	sts	0x00B9, r1
 7ae:	10 92 b8 00 	sts	0x00B8, r1
 7b2:	8f e9       	ldi	r24, 0x9F	; 159
 7b4:	9f e0       	ldi	r25, 0x0F	; 15
 7b6:	01 97       	sbiw	r24, 0x01	; 1
 7b8:	f1 f7       	brne	.-4      	; 0x7b6 <main+0x12c>
 7ba:	00 c0       	rjmp	.+0      	; 0x7bc <main+0x132>
 7bc:	00 00       	nop
 7be:	cb 9b       	sbis	0x19, 3	; 25
 7c0:	03 c0       	rjmp	.+6      	; 0x7c8 <main+0x13e>
 7c2:	00 93 ba 00 	sts	0x00BA, r16
 7c6:	02 c0       	rjmp	.+4      	; 0x7cc <main+0x142>
 7c8:	10 92 ba 00 	sts	0x00BA, r1
 7cc:	80 e0       	ldi	r24, 0x00	; 0
 7ce:	90 e0       	ldi	r25, 0x00	; 0
 7d0:	36 9a       	sbi	0x06, 6	; 6
 7d2:	36 99       	sbic	0x06, 6	; 6
 7d4:	fe cf       	rjmp	.-4      	; 0x7d2 <main+0x148>
 7d6:	00 97       	sbiw	r24, 0x00	; 0
 7d8:	61 f0       	breq	.+24     	; 0x7f2 <main+0x168>
 7da:	24 b1       	in	r18, 0x04	; 4
 7dc:	35 b1       	in	r19, 0x05	; 5
 7de:	40 91 b8 00 	lds	r20, 0x00B8
 7e2:	50 91 b9 00 	lds	r21, 0x00B9
 7e6:	24 0f       	add	r18, r20
 7e8:	35 1f       	adc	r19, r21
 7ea:	30 93 b9 00 	sts	0x00B9, r19
 7ee:	20 93 b8 00 	sts	0x00B8, r18
 7f2:	01 96       	adiw	r24, 0x01	; 1
 7f4:	84 30       	cpi	r24, 0x04	; 4
 7f6:	91 05       	cpc	r25, r1
 7f8:	59 f7       	brne	.-42     	; 0x7d0 <main+0x146>
 7fa:	80 91 b8 00 	lds	r24, 0x00B8
 7fe:	90 91 b9 00 	lds	r25, 0x00B9
 802:	b7 01       	movw	r22, r14
 804:	31 d2       	rcall	.+1122   	; 0xc68 <__udivmodhi4>
 806:	9b 01       	movw	r18, r22
 808:	40 e0       	ldi	r20, 0x00	; 0
 80a:	50 e0       	ldi	r21, 0x00	; 0
 80c:	c5 01       	movw	r24, r10
 80e:	b4 01       	movw	r22, r8
 810:	3f d2       	rcall	.+1150   	; 0xc90 <__divmodsi4>
 812:	30 93 b9 00 	sts	0x00B9, r19
 816:	20 93 b8 00 	sts	0x00B8, r18
 81a:	86 eb       	ldi	r24, 0xB6	; 182
 81c:	c8 2e       	mov	r12, r24
 81e:	80 e0       	ldi	r24, 0x00	; 0
 820:	d8 2e       	mov	r13, r24
 822:	80 e0       	ldi	r24, 0x00	; 0
 824:	90 e0       	ldi	r25, 0x00	; 0
 826:	f6 01       	movw	r30, r12
 828:	61 91       	ld	r22, Z+
 82a:	6f 01       	movw	r12, r30
 82c:	8c de       	rcall	.-744    	; 0x546 <_crc_xmodem_update>
 82e:	fb eb       	ldi	r31, 0xBB	; 187
 830:	cf 16       	cp	r12, r31
 832:	f0 e0       	ldi	r31, 0x00	; 0
 834:	df 06       	cpc	r13, r31
 836:	b9 f7       	brne	.-18     	; 0x826 <main+0x19c>
 838:	90 93 bd 00 	sts	0x00BD, r25
 83c:	80 93 bc 00 	sts	0x00BC, r24
 840:	e6 eb       	ldi	r30, 0xB6	; 182
 842:	f0 e0       	ldi	r31, 0x00	; 0
 844:	a0 e7       	ldi	r26, 0x70	; 112
 846:	b0 e0       	ldi	r27, 0x00	; 0
 848:	81 2f       	mov	r24, r17
 84a:	01 90       	ld	r0, Z+
 84c:	0d 92       	st	X+, r0
 84e:	8a 95       	dec	r24
 850:	e1 f7       	brne	.-8      	; 0x84a <main+0x1c0>
 852:	60 e7       	ldi	r22, 0x70	; 112
 854:	70 e0       	ldi	r23, 0x00	; 0
 856:	80 e6       	ldi	r24, 0x60	; 96
 858:	90 e0       	ldi	r25, 0x00	; 0
 85a:	52 de       	rcall	.-860    	; 0x500 <aes128_enc_single>
 85c:	e0 e7       	ldi	r30, 0x70	; 112
 85e:	f0 e0       	ldi	r31, 0x00	; 0
 860:	a6 eb       	ldi	r26, 0xB6	; 182
 862:	b0 e0       	ldi	r27, 0x00	; 0
 864:	81 2f       	mov	r24, r17
 866:	01 90       	ld	r0, Z+
 868:	0d 92       	st	X+, r0
 86a:	8a 95       	dec	r24
 86c:	e1 f7       	brne	.-8      	; 0x866 <main+0x1dc>
 86e:	6a e0       	ldi	r22, 0x0A	; 10
 870:	80 e0       	ldi	r24, 0x00	; 0
 872:	6d d0       	rcall	.+218    	; 0x94e <mirf_config_register>
 874:	8f e6       	ldi	r24, 0x6F	; 111
 876:	97 e1       	ldi	r25, 0x17	; 23
 878:	01 97       	sbiw	r24, 0x01	; 1
 87a:	f1 f7       	brne	.-4      	; 0x878 <main+0x1ee>
 87c:	00 c0       	rjmp	.+0      	; 0x87e <main+0x1f4>
 87e:	00 00       	nop
 880:	c6 d0       	rcall	.+396    	; 0xa0e <mirf_transmit_data>
 882:	f6 de       	rcall	.-532    	; 0x670 <init_data_out>
 884:	64 cf       	rjmp	.-312    	; 0x74e <main+0xc4>
 886:	c2 98       	cbi	0x18, 2	; 24
 888:	00 d1       	rcall	.+512    	; 0xa8a <mirf_receive_data>
 88a:	80 91 a0 00 	lds	r24, 0x00A0
 88e:	9f ef       	ldi	r25, 0xFF	; 255
 890:	98 0f       	add	r25, r24
 892:	9e 3f       	cpi	r25, 0xFE	; 254
 894:	08 f0       	brcs	.+2      	; 0x898 <main+0x20e>
 896:	5b cf       	rjmp	.-330    	; 0x74e <main+0xc4>
 898:	80 93 9f 00 	sts	0x009F, r24
 89c:	a3 d0       	rcall	.+326    	; 0x9e4 <mirf_reconfig_tx>
 89e:	80 91 9f 00 	lds	r24, 0x009F
 8a2:	80 93 b6 00 	sts	0x00B6, r24
 8a6:	80 e0       	ldi	r24, 0x00	; 0
 8a8:	90 e0       	ldi	r25, 0x00	; 0
 8aa:	01 96       	adiw	r24, 0x01	; 1
 8ac:	fc 01       	movw	r30, r24
 8ae:	ea 54       	subi	r30, 0x4A	; 74
 8b0:	ff 4f       	sbci	r31, 0xFF	; 255
 8b2:	dc 01       	movw	r26, r24
 8b4:	a0 56       	subi	r26, 0x60	; 96
 8b6:	bf 4f       	sbci	r27, 0xFF	; 255
 8b8:	2c 91       	ld	r18, X
 8ba:	20 83       	st	Z, r18
 8bc:	80 31       	cpi	r24, 0x10	; 16
 8be:	91 05       	cpc	r25, r1
 8c0:	a1 f7       	brne	.-24     	; 0x8aa <main+0x220>
 8c2:	96 eb       	ldi	r25, 0xB6	; 182
 8c4:	c9 2e       	mov	r12, r25
 8c6:	90 e0       	ldi	r25, 0x00	; 0
 8c8:	d9 2e       	mov	r13, r25
 8ca:	61 2c       	mov	r6, r1
 8cc:	71 2c       	mov	r7, r1
 8ce:	f6 01       	movw	r30, r12
 8d0:	61 91       	ld	r22, Z+
 8d2:	6f 01       	movw	r12, r30
 8d4:	c3 01       	movw	r24, r6
 8d6:	37 de       	rcall	.-914    	; 0x546 <_crc_xmodem_update>
 8d8:	3c 01       	movw	r6, r24
 8da:	f7 ec       	ldi	r31, 0xC7	; 199
 8dc:	cf 16       	cp	r12, r31
 8de:	f0 e0       	ldi	r31, 0x00	; 0
 8e0:	df 06       	cpc	r13, r31
 8e2:	a9 f7       	brne	.-22     	; 0x8ce <main+0x244>
 8e4:	80 91 b1 00 	lds	r24, 0x00B1
 8e8:	90 91 b2 00 	lds	r25, 0x00B2
 8ec:	68 16       	cp	r6, r24
 8ee:	79 06       	cpc	r7, r25
 8f0:	29 f0       	breq	.+10     	; 0x8fc <main+0x272>
 8f2:	e0 91 92 00 	lds	r30, 0x0092
 8f6:	f0 91 93 00 	lds	r31, 0x0093
 8fa:	09 95       	icall
 8fc:	b9 de       	rcall	.-654    	; 0x670 <init_data_out>
 8fe:	e1 ea       	ldi	r30, 0xA1	; 161
 900:	f0 e0       	ldi	r31, 0x00	; 0
 902:	a0 e6       	ldi	r26, 0x60	; 96
 904:	b0 e0       	ldi	r27, 0x00	; 0
 906:	81 2f       	mov	r24, r17
 908:	01 90       	ld	r0, Z+
 90a:	0d 92       	st	X+, r0
 90c:	8a 95       	dec	r24
 90e:	e1 f7       	brne	.-8      	; 0x908 <main+0x27e>
 910:	80 91 b6 00 	lds	r24, 0x00B6
 914:	80 93 70 00 	sts	0x0070, r24
 918:	60 92 71 00 	sts	0x0071, r6
 91c:	70 92 72 00 	sts	0x0072, r7
 920:	60 e6       	ldi	r22, 0x60	; 96
 922:	70 e0       	ldi	r23, 0x00	; 0
 924:	80 e4       	ldi	r24, 0x40	; 64
 926:	90 e0       	ldi	r25, 0x00	; 0
 928:	08 d2       	rcall	.+1040   	; 0xd3a <_etext>
 92a:	e0 91 92 00 	lds	r30, 0x0092
 92e:	f0 91 93 00 	lds	r31, 0x0093
 932:	09 95       	icall
 934:	0c cf       	rjmp	.-488    	; 0x74e <main+0xc4>

00000936 <mirf_init>:
 936:	ba 9a       	sbi	0x17, 2	; 23
 938:	d7 9a       	sbi	0x1a, 7	; 26
 93a:	c2 98       	cbi	0x18, 2	; 24
 93c:	df 9a       	sbi	0x1b, 7	; 27
 93e:	08 95       	ret

00000940 <mirf_status>:
 940:	df 98       	cbi	0x1b, 7	; 27
 942:	87 e0       	ldi	r24, 0x07	; 7
 944:	cc d0       	rcall	.+408    	; 0xade <spi_transfer>
 946:	8f ef       	ldi	r24, 0xFF	; 255
 948:	ca d0       	rcall	.+404    	; 0xade <spi_transfer>
 94a:	df 9a       	sbi	0x1b, 7	; 27
 94c:	08 95       	ret

0000094e <mirf_config_register>:
 94e:	cf 93       	push	r28
 950:	df 93       	push	r29
 952:	1f 92       	push	r1
 954:	cd b7       	in	r28, 0x3d	; 61
 956:	de b7       	in	r29, 0x3e	; 62
 958:	df 98       	cbi	0x1b, 7	; 27
 95a:	8f 71       	andi	r24, 0x1F	; 31
 95c:	80 62       	ori	r24, 0x20	; 32
 95e:	69 83       	std	Y+1, r22	; 0x01
 960:	be d0       	rcall	.+380    	; 0xade <spi_transfer>
 962:	69 81       	ldd	r22, Y+1	; 0x01
 964:	86 2f       	mov	r24, r22
 966:	bb d0       	rcall	.+374    	; 0xade <spi_transfer>
 968:	df 9a       	sbi	0x1b, 7	; 27
 96a:	0f 90       	pop	r0
 96c:	df 91       	pop	r29
 96e:	cf 91       	pop	r28
 970:	08 95       	ret

00000972 <mirf_write_register>:
 972:	0f 93       	push	r16
 974:	1f 93       	push	r17
 976:	cf 93       	push	r28
 978:	df 93       	push	r29
 97a:	1f 92       	push	r1
 97c:	cd b7       	in	r28, 0x3d	; 61
 97e:	de b7       	in	r29, 0x3e	; 62
 980:	8b 01       	movw	r16, r22
 982:	df 98       	cbi	0x1b, 7	; 27
 984:	8f 71       	andi	r24, 0x1F	; 31
 986:	80 62       	ori	r24, 0x20	; 32
 988:	49 83       	std	Y+1, r20	; 0x01
 98a:	a9 d0       	rcall	.+338    	; 0xade <spi_transfer>
 98c:	49 81       	ldd	r20, Y+1	; 0x01
 98e:	64 2f       	mov	r22, r20
 990:	c8 01       	movw	r24, r16
 992:	af d0       	rcall	.+350    	; 0xaf2 <spi_write_data>
 994:	df 9a       	sbi	0x1b, 7	; 27
 996:	0f 90       	pop	r0
 998:	df 91       	pop	r29
 99a:	cf 91       	pop	r28
 99c:	1f 91       	pop	r17
 99e:	0f 91       	pop	r16
 9a0:	08 95       	ret

000009a2 <mirf_config>:
 9a2:	65 e0       	ldi	r22, 0x05	; 5
 9a4:	85 e0       	ldi	r24, 0x05	; 5
 9a6:	d3 df       	rcall	.-90     	; 0x94e <mirf_config_register>
 9a8:	64 e1       	ldi	r22, 0x14	; 20
 9aa:	81 e1       	ldi	r24, 0x11	; 17
 9ac:	d0 df       	rcall	.-96     	; 0x94e <mirf_config_register>
 9ae:	64 e1       	ldi	r22, 0x14	; 20
 9b0:	82 e1       	ldi	r24, 0x12	; 18
 9b2:	cd df       	rcall	.-102    	; 0x94e <mirf_config_register>
 9b4:	63 e1       	ldi	r22, 0x13	; 19
 9b6:	84 e0       	ldi	r24, 0x04	; 4
 9b8:	ca df       	rcall	.-108    	; 0x94e <mirf_config_register>
 9ba:	45 e0       	ldi	r20, 0x05	; 5
 9bc:	60 e8       	ldi	r22, 0x80	; 128
 9be:	70 e0       	ldi	r23, 0x00	; 0
 9c0:	8a e0       	ldi	r24, 0x0A	; 10
 9c2:	d7 df       	rcall	.-82     	; 0x972 <mirf_write_register>
 9c4:	45 e0       	ldi	r20, 0x05	; 5
 9c6:	66 e8       	ldi	r22, 0x86	; 134
 9c8:	70 e0       	ldi	r23, 0x00	; 0
 9ca:	8b e0       	ldi	r24, 0x0B	; 11
 9cc:	d2 df       	rcall	.-92     	; 0x972 <mirf_write_register>
 9ce:	45 e0       	ldi	r20, 0x05	; 5
 9d0:	60 e8       	ldi	r22, 0x80	; 128
 9d2:	70 e0       	ldi	r23, 0x00	; 0
 9d4:	80 e1       	ldi	r24, 0x10	; 16
 9d6:	cd df       	rcall	.-102    	; 0x972 <mirf_write_register>
 9d8:	63 e0       	ldi	r22, 0x03	; 3
 9da:	82 e0       	ldi	r24, 0x02	; 2
 9dc:	b8 df       	rcall	.-144    	; 0x94e <mirf_config_register>
 9de:	6a e0       	ldi	r22, 0x0A	; 10
 9e0:	80 e0       	ldi	r24, 0x00	; 0
 9e2:	b5 cf       	rjmp	.-150    	; 0x94e <mirf_config_register>

000009e4 <mirf_reconfig_tx>:
 9e4:	68 e0       	ldi	r22, 0x08	; 8
 9e6:	80 e0       	ldi	r24, 0x00	; 0
 9e8:	b2 df       	rcall	.-156    	; 0x94e <mirf_config_register>
 9ea:	45 e0       	ldi	r20, 0x05	; 5
 9ec:	60 e8       	ldi	r22, 0x80	; 128
 9ee:	70 e0       	ldi	r23, 0x00	; 0
 9f0:	8a e0       	ldi	r24, 0x0A	; 10
 9f2:	bf df       	rcall	.-130    	; 0x972 <mirf_write_register>
 9f4:	45 e0       	ldi	r20, 0x05	; 5
 9f6:	6c e8       	ldi	r22, 0x8C	; 140
 9f8:	70 e0       	ldi	r23, 0x00	; 0
 9fa:	8b e0       	ldi	r24, 0x0B	; 11
 9fc:	ba df       	rcall	.-140    	; 0x972 <mirf_write_register>
 9fe:	45 e0       	ldi	r20, 0x05	; 5
 a00:	60 e8       	ldi	r22, 0x80	; 128
 a02:	70 e0       	ldi	r23, 0x00	; 0
 a04:	80 e1       	ldi	r24, 0x10	; 16
 a06:	b5 df       	rcall	.-150    	; 0x972 <mirf_write_register>
 a08:	6a e0       	ldi	r22, 0x0A	; 10
 a0a:	80 e0       	ldi	r24, 0x00	; 0
 a0c:	a0 cf       	rjmp	.-192    	; 0x94e <mirf_config_register>

00000a0e <mirf_transmit_data>:
 a0e:	1f 93       	push	r17
 a10:	cf 93       	push	r28
 a12:	df 93       	push	r29
 a14:	6a e0       	ldi	r22, 0x0A	; 10
 a16:	80 e0       	ldi	r24, 0x00	; 0
 a18:	9a df       	rcall	.-204    	; 0x94e <mirf_config_register>
 a1a:	df 98       	cbi	0x1b, 7	; 27
 a1c:	81 ee       	ldi	r24, 0xE1	; 225
 a1e:	5f d0       	rcall	.+190    	; 0xade <spi_transfer>
 a20:	df 9a       	sbi	0x1b, 7	; 27
 a22:	df 98       	cbi	0x1b, 7	; 27
 a24:	80 ea       	ldi	r24, 0xA0	; 160
 a26:	5b d0       	rcall	.+182    	; 0xade <spi_transfer>
 a28:	64 e1       	ldi	r22, 0x14	; 20
 a2a:	86 eb       	ldi	r24, 0xB6	; 182
 a2c:	90 e0       	ldi	r25, 0x00	; 0
 a2e:	61 d0       	rcall	.+194    	; 0xaf2 <spi_write_data>
 a30:	df 9a       	sbi	0x1b, 7	; 27
 a32:	c2 9a       	sbi	0x18, 2	; 24
 a34:	88 e2       	ldi	r24, 0x28	; 40
 a36:	8a 95       	dec	r24
 a38:	f1 f7       	brne	.-4      	; 0xa36 <mirf_transmit_data+0x28>
 a3a:	c2 98       	cbi	0x18, 2	; 24
 a3c:	ca e0       	ldi	r28, 0x0A	; 10
 a3e:	d0 e0       	ldi	r29, 0x00	; 0
 a40:	7f df       	rcall	.-258    	; 0x940 <mirf_status>
 a42:	18 2f       	mov	r17, r24
 a44:	10 72       	andi	r17, 0x20	; 32
 a46:	85 fd       	sbrc	r24, 5
 a48:	17 c0       	rjmp	.+46     	; 0xa78 <mirf_transmit_data+0x6a>
 a4a:	87 ee       	ldi	r24, 0xE7	; 231
 a4c:	93 e0       	ldi	r25, 0x03	; 3
 a4e:	01 97       	sbiw	r24, 0x01	; 1
 a50:	f1 f7       	brne	.-4      	; 0xa4e <mirf_transmit_data+0x40>
 a52:	00 c0       	rjmp	.+0      	; 0xa54 <mirf_transmit_data+0x46>
 a54:	00 00       	nop
 a56:	74 df       	rcall	.-280    	; 0x940 <mirf_status>
 a58:	84 ff       	sbrs	r24, 4
 a5a:	08 c0       	rjmp	.+16     	; 0xa6c <mirf_transmit_data+0x5e>
 a5c:	60 e1       	ldi	r22, 0x10	; 16
 a5e:	87 e0       	ldi	r24, 0x07	; 7
 a60:	76 df       	rcall	.-276    	; 0x94e <mirf_config_register>
 a62:	c2 9a       	sbi	0x18, 2	; 24
 a64:	98 e2       	ldi	r25, 0x28	; 40
 a66:	9a 95       	dec	r25
 a68:	f1 f7       	brne	.-4      	; 0xa66 <mirf_transmit_data+0x58>
 a6a:	c2 98       	cbi	0x18, 2	; 24
 a6c:	21 97       	sbiw	r28, 0x01	; 1
 a6e:	41 f7       	brne	.-48     	; 0xa40 <mirf_transmit_data+0x32>
 a70:	60 e1       	ldi	r22, 0x10	; 16
 a72:	87 e0       	ldi	r24, 0x07	; 7
 a74:	6c df       	rcall	.-296    	; 0x94e <mirf_config_register>
 a76:	04 c0       	rjmp	.+8      	; 0xa80 <mirf_transmit_data+0x72>
 a78:	60 e2       	ldi	r22, 0x20	; 32
 a7a:	87 e0       	ldi	r24, 0x07	; 7
 a7c:	68 df       	rcall	.-304    	; 0x94e <mirf_config_register>
 a7e:	11 e0       	ldi	r17, 0x01	; 1
 a80:	81 2f       	mov	r24, r17
 a82:	df 91       	pop	r29
 a84:	cf 91       	pop	r28
 a86:	1f 91       	pop	r17
 a88:	08 95       	ret

00000a8a <mirf_receive_data>:
 a8a:	cf 93       	push	r28
 a8c:	6b e0       	ldi	r22, 0x0B	; 11
 a8e:	80 e0       	ldi	r24, 0x00	; 0
 a90:	5e df       	rcall	.-324    	; 0x94e <mirf_config_register>
 a92:	c2 9a       	sbi	0x18, 2	; 24
 a94:	e0 ea       	ldi	r30, 0xA0	; 160
 a96:	f0 e0       	ldi	r31, 0x00	; 0
 a98:	11 92       	st	Z+, r1
 a9a:	80 e0       	ldi	r24, 0x00	; 0
 a9c:	e4 3b       	cpi	r30, 0xB4	; 180
 a9e:	f8 07       	cpc	r31, r24
 aa0:	d9 f7       	brne	.-10     	; 0xa98 <mirf_receive_data+0xe>
 aa2:	c4 e6       	ldi	r28, 0x64	; 100
 aa4:	4d df       	rcall	.-358    	; 0x940 <mirf_status>
 aa6:	86 fd       	sbrc	r24, 6
 aa8:	0a c0       	rjmp	.+20     	; 0xabe <mirf_receive_data+0x34>
 aaa:	87 ee       	ldi	r24, 0xE7	; 231
 aac:	93 e0       	ldi	r25, 0x03	; 3
 aae:	01 97       	sbiw	r24, 0x01	; 1
 ab0:	f1 f7       	brne	.-4      	; 0xaae <mirf_receive_data+0x24>
 ab2:	00 c0       	rjmp	.+0      	; 0xab4 <mirf_receive_data+0x2a>
 ab4:	00 00       	nop
 ab6:	c1 50       	subi	r28, 0x01	; 1
 ab8:	a9 f7       	brne	.-22     	; 0xaa4 <mirf_receive_data+0x1a>
 aba:	c2 98       	cbi	0x18, 2	; 24
 abc:	0d c0       	rjmp	.+26     	; 0xad8 <mirf_receive_data+0x4e>
 abe:	c2 98       	cbi	0x18, 2	; 24
 ac0:	df 98       	cbi	0x1b, 7	; 27
 ac2:	81 e6       	ldi	r24, 0x61	; 97
 ac4:	0c d0       	rcall	.+24     	; 0xade <spi_transfer>
 ac6:	64 e1       	ldi	r22, 0x14	; 20
 ac8:	80 ea       	ldi	r24, 0xA0	; 160
 aca:	90 e0       	ldi	r25, 0x00	; 0
 acc:	2e d0       	rcall	.+92     	; 0xb2a <spi_read_data>
 ace:	df 9a       	sbi	0x1b, 7	; 27
 ad0:	60 e4       	ldi	r22, 0x40	; 64
 ad2:	87 e0       	ldi	r24, 0x07	; 7
 ad4:	3c df       	rcall	.-392    	; 0x94e <mirf_config_register>
 ad6:	c1 e0       	ldi	r28, 0x01	; 1
 ad8:	8c 2f       	mov	r24, r28
 ada:	cf 91       	pop	r28
 adc:	08 95       	ret

00000ade <spi_transfer>:
 ade:	8f b9       	out	0x0f, r24	; 15
 ae0:	80 e4       	ldi	r24, 0x40	; 64
 ae2:	8e b9       	out	0x0e, r24	; 14
 ae4:	8b e1       	ldi	r24, 0x1B	; 27
 ae6:	76 99       	sbic	0x0e, 6	; 14
 ae8:	02 c0       	rjmp	.+4      	; 0xaee <spi_transfer+0x10>
 aea:	8d b9       	out	0x0d, r24	; 13
 aec:	fc cf       	rjmp	.-8      	; 0xae6 <spi_transfer+0x8>
 aee:	8f b1       	in	r24, 0x0f	; 15
 af0:	08 95       	ret

00000af2 <spi_write_data>:
 af2:	ef 92       	push	r14
 af4:	ff 92       	push	r15
 af6:	1f 93       	push	r17
 af8:	cf 93       	push	r28
 afa:	df 93       	push	r29
 afc:	1f 92       	push	r1
 afe:	cd b7       	in	r28, 0x3d	; 61
 b00:	de b7       	in	r29, 0x3e	; 62
 b02:	18 2f       	mov	r17, r24
 b04:	7c 01       	movw	r14, r24
 b06:	8e 2d       	mov	r24, r14
 b08:	81 1b       	sub	r24, r17
 b0a:	86 17       	cp	r24, r22
 b0c:	38 f4       	brcc	.+14     	; 0xb1c <spi_write_data+0x2a>
 b0e:	f7 01       	movw	r30, r14
 b10:	81 91       	ld	r24, Z+
 b12:	7f 01       	movw	r14, r30
 b14:	69 83       	std	Y+1, r22	; 0x01
 b16:	e3 df       	rcall	.-58     	; 0xade <spi_transfer>
 b18:	69 81       	ldd	r22, Y+1	; 0x01
 b1a:	f5 cf       	rjmp	.-22     	; 0xb06 <spi_write_data+0x14>
 b1c:	0f 90       	pop	r0
 b1e:	df 91       	pop	r29
 b20:	cf 91       	pop	r28
 b22:	1f 91       	pop	r17
 b24:	ff 90       	pop	r15
 b26:	ef 90       	pop	r14
 b28:	08 95       	ret

00000b2a <spi_read_data>:
 b2a:	ef 92       	push	r14
 b2c:	ff 92       	push	r15
 b2e:	1f 93       	push	r17
 b30:	cf 93       	push	r28
 b32:	df 93       	push	r29
 b34:	1f 92       	push	r1
 b36:	cd b7       	in	r28, 0x3d	; 61
 b38:	de b7       	in	r29, 0x3e	; 62
 b3a:	18 2f       	mov	r17, r24
 b3c:	7c 01       	movw	r14, r24
 b3e:	8e 2d       	mov	r24, r14
 b40:	81 1b       	sub	r24, r17
 b42:	86 17       	cp	r24, r22
 b44:	40 f4       	brcc	.+16     	; 0xb56 <spi_read_data+0x2c>
 b46:	80 e0       	ldi	r24, 0x00	; 0
 b48:	69 83       	std	Y+1, r22	; 0x01
 b4a:	c9 df       	rcall	.-110    	; 0xade <spi_transfer>
 b4c:	f7 01       	movw	r30, r14
 b4e:	81 93       	st	Z+, r24
 b50:	7f 01       	movw	r14, r30
 b52:	69 81       	ldd	r22, Y+1	; 0x01
 b54:	f4 cf       	rjmp	.-24     	; 0xb3e <spi_read_data+0x14>
 b56:	0f 90       	pop	r0
 b58:	df 91       	pop	r29
 b5a:	cf 91       	pop	r28
 b5c:	1f 91       	pop	r17
 b5e:	ff 90       	pop	r15
 b60:	ef 90       	pop	r14
 b62:	08 95       	ret

00000b64 <spi_init>:
 b64:	d4 9a       	sbi	0x1a, 4	; 26
 b66:	d5 9a       	sbi	0x1a, 5	; 26
 b68:	d6 98       	cbi	0x1a, 6	; 26
 b6a:	de 9a       	sbi	0x1b, 6	; 27
 b6c:	08 95       	ret

00000b6e <__vector_9>:
 b6e:	1f 92       	push	r1
 b70:	0f 92       	push	r0
 b72:	0f b6       	in	r0, 0x3f	; 63
 b74:	0f 92       	push	r0
 b76:	11 24       	eor	r1, r1
 b78:	2f 93       	push	r18
 b7a:	3f 93       	push	r19
 b7c:	4f 93       	push	r20
 b7e:	5f 93       	push	r21
 b80:	6f 93       	push	r22
 b82:	7f 93       	push	r23
 b84:	8f 93       	push	r24
 b86:	9f 93       	push	r25
 b88:	af 93       	push	r26
 b8a:	80 91 94 00 	lds	r24, 0x0094
 b8e:	88 23       	and	r24, r24
 b90:	19 f1       	breq	.+70     	; 0xbd8 <__vector_9+0x6a>
 b92:	80 91 d2 00 	lds	r24, 0x00D2
 b96:	81 11       	cpse	r24, r1
 b98:	02 c0       	rjmp	.+4      	; 0xb9e <__vector_9+0x30>
 b9a:	c0 98       	cbi	0x18, 0	; 24
 b9c:	18 c0       	rjmp	.+48     	; 0xbce <__vector_9+0x60>
 b9e:	80 91 d2 00 	lds	r24, 0x00D2
 ba2:	89 30       	cpi	r24, 0x09	; 9
 ba4:	68 f4       	brcc	.+26     	; 0xbc0 <__vector_9+0x52>
 ba6:	80 91 d3 00 	lds	r24, 0x00D3
 baa:	80 ff       	sbrs	r24, 0
 bac:	02 c0       	rjmp	.+4      	; 0xbb2 <__vector_9+0x44>
 bae:	c0 9a       	sbi	0x18, 0	; 24
 bb0:	01 c0       	rjmp	.+2      	; 0xbb4 <__vector_9+0x46>
 bb2:	c0 98       	cbi	0x18, 0	; 24
 bb4:	80 91 d3 00 	lds	r24, 0x00D3
 bb8:	86 95       	lsr	r24
 bba:	80 93 d3 00 	sts	0x00D3, r24
 bbe:	07 c0       	rjmp	.+14     	; 0xbce <__vector_9+0x60>
 bc0:	80 91 d2 00 	lds	r24, 0x00D2
 bc4:	89 30       	cpi	r24, 0x09	; 9
 bc6:	18 f0       	brcs	.+6      	; 0xbce <__vector_9+0x60>
 bc8:	c0 9a       	sbi	0x18, 0	; 24
 bca:	10 92 94 00 	sts	0x0094, r1
 bce:	80 91 d2 00 	lds	r24, 0x00D2
 bd2:	8f 5f       	subi	r24, 0xFF	; 255
 bd4:	80 93 d2 00 	sts	0x00D2, r24
 bd8:	80 91 95 00 	lds	r24, 0x0095
 bdc:	90 91 96 00 	lds	r25, 0x0096
 be0:	89 59       	subi	r24, 0x99	; 153
 be2:	9f 4f       	sbci	r25, 0xFF	; 255
 be4:	90 93 96 00 	sts	0x0096, r25
 be8:	80 93 95 00 	sts	0x0095, r24
 bec:	80 91 95 00 	lds	r24, 0x0095
 bf0:	90 91 96 00 	lds	r25, 0x0096
 bf4:	89 3e       	cpi	r24, 0xE9	; 233
 bf6:	93 40       	sbci	r25, 0x03	; 3
 bf8:	48 f1       	brcs	.+82     	; 0xc4c <__vector_9+0xde>
 bfa:	20 91 97 00 	lds	r18, 0x0097
 bfe:	30 91 98 00 	lds	r19, 0x0098
 c02:	40 91 99 00 	lds	r20, 0x0099
 c06:	50 91 9a 00 	lds	r21, 0x009A
 c0a:	60 91 9b 00 	lds	r22, 0x009B
 c0e:	70 91 9c 00 	lds	r23, 0x009C
 c12:	80 91 9d 00 	lds	r24, 0x009D
 c16:	90 91 9e 00 	lds	r25, 0x009E
 c1a:	a1 e0       	ldi	r26, 0x01	; 1
 c1c:	55 d0       	rcall	.+170    	; 0xcc8 <__adddi3_s8>
 c1e:	20 93 97 00 	sts	0x0097, r18
 c22:	30 93 98 00 	sts	0x0098, r19
 c26:	40 93 99 00 	sts	0x0099, r20
 c2a:	50 93 9a 00 	sts	0x009A, r21
 c2e:	60 93 9b 00 	sts	0x009B, r22
 c32:	70 93 9c 00 	sts	0x009C, r23
 c36:	80 93 9d 00 	sts	0x009D, r24
 c3a:	90 93 9e 00 	sts	0x009E, r25
 c3e:	80 91 95 00 	lds	r24, 0x0095
 c42:	90 91 96 00 	lds	r25, 0x0096
 c46:	88 5e       	subi	r24, 0xE8	; 232
 c48:	93 40       	sbci	r25, 0x03	; 3
 c4a:	cc cf       	rjmp	.-104    	; 0xbe4 <__vector_9+0x76>
 c4c:	af 91       	pop	r26
 c4e:	9f 91       	pop	r25
 c50:	8f 91       	pop	r24
 c52:	7f 91       	pop	r23
 c54:	6f 91       	pop	r22
 c56:	5f 91       	pop	r21
 c58:	4f 91       	pop	r20
 c5a:	3f 91       	pop	r19
 c5c:	2f 91       	pop	r18
 c5e:	0f 90       	pop	r0
 c60:	0f be       	out	0x3f, r0	; 63
 c62:	0f 90       	pop	r0
 c64:	1f 90       	pop	r1
 c66:	18 95       	reti

00000c68 <__udivmodhi4>:
 c68:	aa 1b       	sub	r26, r26
 c6a:	bb 1b       	sub	r27, r27
 c6c:	51 e1       	ldi	r21, 0x11	; 17
 c6e:	07 c0       	rjmp	.+14     	; 0xc7e <__udivmodhi4_ep>

00000c70 <__udivmodhi4_loop>:
 c70:	aa 1f       	adc	r26, r26
 c72:	bb 1f       	adc	r27, r27
 c74:	a6 17       	cp	r26, r22
 c76:	b7 07       	cpc	r27, r23
 c78:	10 f0       	brcs	.+4      	; 0xc7e <__udivmodhi4_ep>
 c7a:	a6 1b       	sub	r26, r22
 c7c:	b7 0b       	sbc	r27, r23

00000c7e <__udivmodhi4_ep>:
 c7e:	88 1f       	adc	r24, r24
 c80:	99 1f       	adc	r25, r25
 c82:	5a 95       	dec	r21
 c84:	a9 f7       	brne	.-22     	; 0xc70 <__udivmodhi4_loop>
 c86:	80 95       	com	r24
 c88:	90 95       	com	r25
 c8a:	bc 01       	movw	r22, r24
 c8c:	cd 01       	movw	r24, r26
 c8e:	08 95       	ret

00000c90 <__divmodsi4>:
 c90:	05 2e       	mov	r0, r21
 c92:	97 fb       	bst	r25, 7
 c94:	16 f4       	brtc	.+4      	; 0xc9a <__divmodsi4+0xa>
 c96:	00 94       	com	r0
 c98:	0f d0       	rcall	.+30     	; 0xcb8 <__negsi2>
 c9a:	57 fd       	sbrc	r21, 7
 c9c:	05 d0       	rcall	.+10     	; 0xca8 <__divmodsi4_neg2>
 c9e:	20 d0       	rcall	.+64     	; 0xce0 <__udivmodsi4>
 ca0:	07 fc       	sbrc	r0, 7
 ca2:	02 d0       	rcall	.+4      	; 0xca8 <__divmodsi4_neg2>
 ca4:	46 f4       	brtc	.+16     	; 0xcb6 <__divmodsi4_exit>
 ca6:	08 c0       	rjmp	.+16     	; 0xcb8 <__negsi2>

00000ca8 <__divmodsi4_neg2>:
 ca8:	50 95       	com	r21
 caa:	40 95       	com	r20
 cac:	30 95       	com	r19
 cae:	21 95       	neg	r18
 cb0:	3f 4f       	sbci	r19, 0xFF	; 255
 cb2:	4f 4f       	sbci	r20, 0xFF	; 255
 cb4:	5f 4f       	sbci	r21, 0xFF	; 255

00000cb6 <__divmodsi4_exit>:
 cb6:	08 95       	ret

00000cb8 <__negsi2>:
 cb8:	90 95       	com	r25
 cba:	80 95       	com	r24
 cbc:	70 95       	com	r23
 cbe:	61 95       	neg	r22
 cc0:	7f 4f       	sbci	r23, 0xFF	; 255
 cc2:	8f 4f       	sbci	r24, 0xFF	; 255
 cc4:	9f 4f       	sbci	r25, 0xFF	; 255
 cc6:	08 95       	ret

00000cc8 <__adddi3_s8>:
 cc8:	00 24       	eor	r0, r0
 cca:	a7 fd       	sbrc	r26, 7
 ccc:	00 94       	com	r0
 cce:	2a 0f       	add	r18, r26
 cd0:	30 1d       	adc	r19, r0
 cd2:	40 1d       	adc	r20, r0
 cd4:	50 1d       	adc	r21, r0
 cd6:	60 1d       	adc	r22, r0
 cd8:	70 1d       	adc	r23, r0
 cda:	80 1d       	adc	r24, r0
 cdc:	90 1d       	adc	r25, r0
 cde:	08 95       	ret

00000ce0 <__udivmodsi4>:
 ce0:	a1 e2       	ldi	r26, 0x21	; 33
 ce2:	1a 2e       	mov	r1, r26
 ce4:	aa 1b       	sub	r26, r26
 ce6:	bb 1b       	sub	r27, r27
 ce8:	fd 01       	movw	r30, r26
 cea:	0d c0       	rjmp	.+26     	; 0xd06 <__udivmodsi4_ep>

00000cec <__udivmodsi4_loop>:
 cec:	aa 1f       	adc	r26, r26
 cee:	bb 1f       	adc	r27, r27
 cf0:	ee 1f       	adc	r30, r30
 cf2:	ff 1f       	adc	r31, r31
 cf4:	a2 17       	cp	r26, r18
 cf6:	b3 07       	cpc	r27, r19
 cf8:	e4 07       	cpc	r30, r20
 cfa:	f5 07       	cpc	r31, r21
 cfc:	20 f0       	brcs	.+8      	; 0xd06 <__udivmodsi4_ep>
 cfe:	a2 1b       	sub	r26, r18
 d00:	b3 0b       	sbc	r27, r19
 d02:	e4 0b       	sbc	r30, r20
 d04:	f5 0b       	sbc	r31, r21

00000d06 <__udivmodsi4_ep>:
 d06:	66 1f       	adc	r22, r22
 d08:	77 1f       	adc	r23, r23
 d0a:	88 1f       	adc	r24, r24
 d0c:	99 1f       	adc	r25, r25
 d0e:	1a 94       	dec	r1
 d10:	69 f7       	brne	.-38     	; 0xcec <__udivmodsi4_loop>
 d12:	60 95       	com	r22
 d14:	70 95       	com	r23
 d16:	80 95       	com	r24
 d18:	90 95       	com	r25
 d1a:	9b 01       	movw	r18, r22
 d1c:	ac 01       	movw	r20, r24
 d1e:	bd 01       	movw	r22, r26
 d20:	cf 01       	movw	r24, r30
 d22:	08 95       	ret

00000d24 <memcpy_P>:
 d24:	fb 01       	movw	r30, r22
 d26:	dc 01       	movw	r26, r24
 d28:	02 c0       	rjmp	.+4      	; 0xd2e <memcpy_P+0xa>
 d2a:	05 90       	lpm	r0, Z+
 d2c:	0d 92       	st	X+, r0
 d2e:	41 50       	subi	r20, 0x01	; 1
 d30:	50 40       	sbci	r21, 0x00	; 0
 d32:	d8 f7       	brcc	.-10     	; 0xd2a <memcpy_P+0x6>
 d34:	08 95       	ret

00000d36 <_exit>:
 d36:	f8 94       	cli

00000d38 <__stop_program>:
 d38:	ff cf       	rjmp	.-2      	; 0xd38 <__stop_program>

Disassembly of section .bootloader:

00000d3a <boot_program_page>:
 d3a:	0f 93       	push	r16
 d3c:	1f 93       	push	r17
 d3e:	cf 93       	push	r28
 d40:	8b 01       	movw	r16, r22
 d42:	7f b7       	in	r23, 0x3f	; 63
 d44:	f8 94       	cli
 d46:	e1 99       	sbic	0x1c, 1	; 28
 d48:	fe cf       	rjmp	.-4      	; 0xd46 <boot_program_page+0xc>
 d4a:	23 e0       	ldi	r18, 0x03	; 3
 d4c:	fc 01       	movw	r30, r24
 d4e:	20 93 57 00 	sts	0x0057, r18
 d52:	e8 95       	spm
 d54:	07 b6       	in	r0, 0x37	; 55
 d56:	00 fc       	sbrc	r0, 0
 d58:	fd cf       	rjmp	.-6      	; 0xd54 <boot_program_page+0x1a>
 d5a:	20 e0       	ldi	r18, 0x00	; 0
 d5c:	30 e0       	ldi	r19, 0x00	; 0
 d5e:	c1 e0       	ldi	r28, 0x01	; 1
 d60:	d8 01       	movw	r26, r16
 d62:	a2 0f       	add	r26, r18
 d64:	b3 1f       	adc	r27, r19
 d66:	6c 91       	ld	r22, X
 d68:	f9 01       	movw	r30, r18
 d6a:	e8 0f       	add	r30, r24
 d6c:	f9 1f       	adc	r31, r25
 d6e:	11 96       	adiw	r26, 0x01	; 1
 d70:	4c 91       	ld	r20, X
 d72:	50 e0       	ldi	r21, 0x00	; 0
 d74:	54 2f       	mov	r21, r20
 d76:	44 27       	eor	r20, r20
 d78:	46 0f       	add	r20, r22
 d7a:	51 1d       	adc	r21, r1
 d7c:	0a 01       	movw	r0, r20
 d7e:	c0 93 57 00 	sts	0x0057, r28
 d82:	e8 95       	spm
 d84:	11 24       	eor	r1, r1
 d86:	2e 5f       	subi	r18, 0xFE	; 254
 d88:	3f 4f       	sbci	r19, 0xFF	; 255
 d8a:	20 32       	cpi	r18, 0x20	; 32
 d8c:	31 05       	cpc	r19, r1
 d8e:	41 f7       	brne	.-48     	; 0xd60 <boot_program_page+0x26>
 d90:	41 e0       	ldi	r20, 0x01	; 1
 d92:	af ef       	ldi	r26, 0xFF	; 255
 d94:	bf ef       	ldi	r27, 0xFF	; 255
 d96:	f9 01       	movw	r30, r18
 d98:	e8 0f       	add	r30, r24
 d9a:	f9 1f       	adc	r31, r25
 d9c:	0d 01       	movw	r0, r26
 d9e:	40 93 57 00 	sts	0x0057, r20
 da2:	e8 95       	spm
 da4:	11 24       	eor	r1, r1
 da6:	2e 5f       	subi	r18, 0xFE	; 254
 da8:	3f 4f       	sbci	r19, 0xFF	; 255
 daa:	20 34       	cpi	r18, 0x40	; 64
 dac:	31 05       	cpc	r19, r1
 dae:	99 f7       	brne	.-26     	; 0xd96 <boot_program_page+0x5c>
 db0:	e1 99       	sbic	0x1c, 1	; 28
 db2:	fe cf       	rjmp	.-4      	; 0xdb0 <boot_program_page+0x76>
 db4:	07 b6       	in	r0, 0x37	; 55
 db6:	00 fc       	sbrc	r0, 0
 db8:	fd cf       	rjmp	.-6      	; 0xdb4 <boot_program_page+0x7a>
 dba:	25 e0       	ldi	r18, 0x05	; 5
 dbc:	fc 01       	movw	r30, r24
 dbe:	20 93 57 00 	sts	0x0057, r18
 dc2:	e8 95       	spm
 dc4:	81 e1       	ldi	r24, 0x11	; 17
 dc6:	87 bf       	out	0x37, r24	; 55
 dc8:	e8 95       	spm
 dca:	7f bf       	out	0x3f, r23	; 63
 dcc:	cf 91       	pop	r28
 dce:	1f 91       	pop	r17
 dd0:	0f 91       	pop	r16
 dd2:	08 95       	ret
